Certificate:
    Data:
        Version: 3 (0x2)
        Serial Number: 4096 (0x1000)
        Signature Algorithm: sha256WithRSAEncryption
        Issuer: C=VN, ST=HCM, L=HCm, O=Hacker, OU=Hacker, CN=hacker.com/emailAddress=hacker@gmail.com
        Validity
            Not Before: Apr 12 14:46:02 2026 GMT
            Not After : Apr 12 14:46:02 2027 GMT
        Subject: C=VN, ST=HCM, O=Hacker, OU=Hacker, CN=ptit.com/emailAddress=hacker@gmail.com
        Subject Public Key Info:
            Public Key Algorithm: rsaEncryption
                Public-Key: (1024 bit)
                Modulus:
                    00:c4:03:a2:ec:af:59:2f:46:8d:06:d2:7b:00:af:
                    54:c3:82:77:5e:3f:e5:54:b2:b7:03:32:a6:82:f3:
                    5a:db:0f:0c:bb:5b:d9:30:c5:37:18:2b:a5:fe:98:
                    a2:89:48:a6:28:85:77:53:be:fa:3c:d0:a8:5a:cf:
                    b0:99:0b:ab:fc:2d:9d:0f:a8:08:ca:61:e2:d8:40:
                    1c:38:fd:41:f4:33:a0:08:c3:c5:72:66:d4:06:0b:
                    50:a7:7c:37:bc:87:22:69:92:21:72:fe:de:c5:ec:
                    bc:fe:ab:34:1b:54:7a:9c:08:df:42:3d:f5:17:c7:
                    ba:cd:bc:9c:27:d3:eb:da:b9
                Exponent: 65537 (0x10001)
        X509v3 extensions:
            X509v3 Basic Constraints: 
                CA:FALSE
            X509v3 Subject Key Identifier: 
                4A:C5:50:70:58:3A:7A:E8:B4:AD:65:51:ED:9F:97:12:A5:39:EE:D4
            X509v3 Authority Key Identifier: 
                4C:C4:9F:F3:FD:37:94:72:AA:2C:97:B4:1F:2C:25:13:D0:4F:82:FE
    Signature Algorithm: sha256WithRSAEncryption
    Signature Value:
        81:05:39:d7:9b:4e:5d:59:5d:f0:2f:a5:d8:15:f6:a5:d0:e3:
        65:c6:2c:9e:56:9e:bc:48:e1:c3:88:58:87:9b:6e:e0:1b:cc:
        b9:5d:00:c6:fd:ca:ba:cd:33:39:8b:b1:38:db:53:bb:ea:fe:
        33:7b:76:6f:68:95:0f:61:7f:32:dc:a3:97:4f:3c:6d:c9:e8:
        25:0e:1e:64:38:36:3b:5b:90:a5:42:7e:0b:99:28:6e:89:d7:
        91:52:bc:1b:6a:a0:8a:bc:3e:04:2a:74:3c:de:75:80:4e:d5:
        d3:c1:20:00:a7:45:ec:a5:2c:65:02:b0:7c:b1:df:ba:bc:3e:
        20:7c:08:4e:4b:4e:00:5a:c7:54:9c:d3:ad:b1:54:69:70:60:
        3e:f3:98:49:a8:16:ca:f9:ca:86:37:f8:0f:2c:52:f8:2e:55:
        e7:1f:e7:48:07:d0:17:e3:62:35:99:f2:c0:c0:fa:40:21:0a:
        69:f0:c3:0d:79:8a:d3:a5:db:ee:54:86:d6:8d:b4:6a:94:59:
        82:6b:15:f8:fb:88:e3:ed:60:c0:3d:aa:83:43:27:fd:9f:e1:
        74:c5:9f:10:7e:7a:97:60:71:d6:66:32:c1:a4:6b:07:4b:8c:
        fb:b0:0d:d1:85:ce:af:6e:70:22:97:a9:8b:32:97:a0:46:c3:
        6e:7d:fd:03
-----BEGIN CERTIFICATE-----
MIIDODCCAiCgAwIBAgICEAAwDQYJKoZIhvcNAQELBQAwgYExCzAJBgNVBAYTAlZO
MQwwCgYDVQQIDANIQ00xDDAKBgNVBAcMA0hDbTEPMA0GA1UECgwGSGFja2VyMQ8w
DQYDVQQLDAZIYWNrZXIxEzARBgNVBAMMCmhhY2tlci5jb20xHzAdBgkqhkiG9w0B
CQEWEGhhY2tlckBnbWFpbC5jb20wHhcNMjYwNDEyMTQ0NjAyWhcNMjcwNDEyMTQ0
NjAyWjBxMQswCQYDVQQGEwJWTjEMMAoGA1UECAwDSENNMQ8wDQYDVQQKDAZIYWNr
ZXIxDzANBgNVBAsMBkhhY2tlcjERMA8GA1UEAwwIcHRpdC5jb20xHzAdBgkqhkiG
9w0BCQEWEGhhY2tlckBnbWFpbC5jb20wgZ8wDQYJKoZIhvcNAQEBBQADgY0AMIGJ
AoGBAMQDouyvWS9GjQbSewCvVMOCd14/5VSytwMypoLzWtsPDLtb2TDFNxgrpf6Y
oolIpiiFd1O++jzQqFrPsJkLq/wtnQ+oCMph4thAHDj9QfQzoAjDxXJm1AYLUKd8
N7yHImmSIXL+3sXsvP6rNBtUepwI30I99RfHus28nCfT69q5AgMBAAGjTTBLMAkG
A1UdEwQCMAAwHQYDVR0OBBYEFErFUHBYOnrotK1lUe2flxKlOe7UMB8GA1UdIwQY
MBaAFEzEn/P9N5RyqiyXtB8sJRPQT4L+MA0GCSqGSIb3DQEBCwUAA4IBAQCBBTnX
m05dWV3wL6XYFfal0ONlxiyeVp68SOHDiFiHm27gG8y5XQDG/cq6zTM5i7E421O7
6v4ze3ZvaJUPYX8y3KOXTzxtyeglDh5kODY7W5ClQn4LmShuideRUrwbaqCKvD4E
KnQ83nWATtXTwSAAp0XspSxlArB8sd+6vD4gfAhOS04AWsdUnNOtsVRpcGA+85hJ
qBbK+cqGN/gPLFL4LlXnH+dIB9AX42I1mfLAwPpAIQpp8MMNeYrTpdvuVIbWjbRq
lFmCaxX4+4jj7WDAPaqDQyf9n+F0xZ8QfnqXYHHWZjLBpGsHS4z7sA3Rhc6vbnAi
l6mLMpegRsNuff0D
-----END CERTIFICATE-----
